target datalayout = "e-m:e-p270:32:32-p271:32:32-p272:64:64-i64:64-i128:128-f80:128-n8:16:32:64-S128"
target triple = "x86_64-pc-linux-gnu"

%struct._OGLSDOps = type { %struct._SurfaceDataOps, ptr, ptr, i32, i32, i8, i8, i32, i32, i32, i32, i32, i32, i32, i32, i32, i32, i32 }
%struct._SurfaceDataOps = type { ptr, ptr, ptr, ptr, ptr, ptr, ptr }
%struct._GLXSDOps = type { i64, i64, i64, ptr }
%struct.XWindowAttributes = type { i32, i32, i32, i32, i32, i32, ptr, i64, i32, i32, i32, i32, i64, i64, i32, i64, i32, i32, i64, i64, i64, i32, ptr }

@awt_display = external global ptr, align 8
@.str.9 = private unnamed_addr constant [34 x i8] c"OGLSD_InitOGLWindow: ops are null\00", align 1
@.str.10 = private unnamed_addr constant [38 x i8] c"OGLSD_InitOGLWindow: glx ops are null\00", align 1
@.str.11 = private unnamed_addr constant [39 x i8] c"OGLSD_InitOGLWindow: window is invalid\00", align 1

; Function Attrs: nounwind uwtable
define hidden zeroext i8 @OGLSD_InitOGLWindow(ptr noundef %0, ptr noundef %1) #0 {
  %3 = alloca i8, align 1
  %4 = alloca ptr, align 8
  %5 = alloca ptr, align 8
  %6 = alloca ptr, align 8
  %7 = alloca i64, align 8
  %8 = alloca %struct.XWindowAttributes, align 8
  store ptr %0, ptr %4, align 8
  store ptr %1, ptr %5, align 8
  %9 = load ptr, ptr %5, align 8
  %10 = icmp eq ptr %9, null
  br i1 %10, label %11, label %12

11:                                               ; preds = %2
  call void (i32, i8, ptr, ...) @J2dTraceImpl(i32 noundef 1, i8 noundef zeroext 1, ptr noundef @.str.9)
  store i8 0, ptr %3, align 1
  br label %52

12:                                               ; preds = %2
  %13 = load ptr, ptr %5, align 8
  %14 = getelementptr inbounds %struct._OGLSDOps, ptr %13, i32 0, i32 1
  %15 = load ptr, ptr %14, align 8
  store ptr %15, ptr %6, align 8
  %16 = load ptr, ptr %6, align 8
  %17 = icmp eq ptr %16, null
  br i1 %17, label %18, label %19

18:                                               ; preds = %12
  call void (i32, i8, ptr, ...) @J2dTraceImpl(i32 noundef 1, i8 noundef zeroext 1, ptr noundef @.str.10)
  store i8 0, ptr %3, align 1
  br label %52

19:                                               ; preds = %12
  %20 = load ptr, ptr %6, align 8
  %21 = getelementptr inbounds %struct._GLXSDOps, ptr %20, i32 0, i32 0
  %22 = load i64, ptr %21, align 8
  store i64 %22, ptr %7, align 8
  %23 = load i64, ptr %7, align 8
  %24 = icmp eq i64 %23, 0
  br i1 %24, label %25, label %26

25:                                               ; preds = %19
  call void (i32, i8, ptr, ...) @J2dTraceImpl(i32 noundef 1, i8 noundef zeroext 1, ptr noundef @.str.11)
  store i8 0, ptr %3, align 1
  br label %52

26:                                               ; preds = %19
  %27 = load ptr, ptr @awt_display, align 8
  %28 = load i64, ptr %7, align 8
  %29 = call i32 @XGetWindowAttributes(ptr noundef %27, i64 noundef %28, ptr noundef %8)
  %30 = getelementptr inbounds %struct.XWindowAttributes, ptr %8, i32 0, i32 2
  %31 = load i32, ptr %30, align 8
  %32 = load ptr, ptr %5, align 8
  %33 = getelementptr inbounds %struct._OGLSDOps, ptr %32, i32 0, i32 9
  store i32 %31, ptr %33, align 4
  %34 = getelementptr inbounds %struct.XWindowAttributes, ptr %8, i32 0, i32 3
  %35 = load i32, ptr %34, align 4
  %36 = load ptr, ptr %5, align 8
  %37 = getelementptr inbounds %struct._OGLSDOps, ptr %36, i32 0, i32 10
  store i32 %35, ptr %37, align 8
  %38 = load ptr, ptr %5, align 8
  %39 = getelementptr inbounds %struct._OGLSDOps, ptr %38, i32 0, i32 3
  store i32 1, ptr %39, align 8
  %40 = load ptr, ptr %5, align 8
  %41 = getelementptr inbounds %struct._OGLSDOps, ptr %40, i32 0, i32 5
  store i8 1, ptr %41, align 8
  %42 = load ptr, ptr %5, align 8
  %43 = getelementptr inbounds %struct._OGLSDOps, ptr %42, i32 0, i32 7
  store i32 0, ptr %43, align 4
  %44 = load ptr, ptr %5, align 8
  %45 = getelementptr inbounds %struct._OGLSDOps, ptr %44, i32 0, i32 8
  store i32 0, ptr %45, align 8
  %46 = load i64, ptr %7, align 8
  %47 = load ptr, ptr %6, align 8
  %48 = getelementptr inbounds %struct._GLXSDOps, ptr %47, i32 0, i32 2
  store i64 %46, ptr %48, align 8
  %49 = load i64, ptr %7, align 8
  %50 = load ptr, ptr %6, align 8
  %51 = getelementptr inbounds %struct._GLXSDOps, ptr %50, i32 0, i32 1
  store i64 %49, ptr %51, align 8
  store i8 1, ptr %3, align 1
  br label %52

52:                                               ; preds = %26, %25, %18, %11
  %53 = load i8, ptr %3, align 1
  ret i8 %53
}