; Function Attrs: nounwind uwtable
define hidden zeroext range(i8 0, 2) i8 @OGLSD_InitOGLWindow(ptr nocapture noundef readnone %0, ptr noundef %1) local_unnamed_addr #0 {
  %3 = alloca %struct.XWindowAttributes, align 8
  %4 = icmp eq ptr %1, null
  br i1 %4, label %5, label %6

5:                                                ; preds = %2
  tail call void (i32, i8, ptr, ...) @J2dTraceImpl(i32 noundef 1, i8 noundef zeroext 1, ptr noundef nonnull @.str.9) #5
  br label %27

6:                                                ; preds = %2
  %7 = getelementptr inbounds i8, ptr %1, i64 56
  %8 = load ptr, ptr %7, align 8
  %9 = icmp eq ptr %8, null
  br i1 %9, label %10, label %11

10:                                               ; preds = %6
  tail call void (i32, i8, ptr, ...) @J2dTraceImpl(i32 noundef 1, i8 noundef zeroext 1, ptr noundef nonnull @.str.10) #5
  br label %27

11:                                               ; preds = %6
  %12 = load i64, ptr %8, align 8
  %13 = icmp eq i64 %12, 0
  br i1 %13, label %14, label %15

14:                                               ; preds = %11
  tail call void (i32, i8, ptr, ...) @J2dTraceImpl(i32 noundef 1, i8 noundef zeroext 1, ptr noundef nonnull @.str.11) #5
  br label %27

15:                                               ; preds = %11
  %16 = load ptr, ptr @awt_display, align 8
  %17 = call i32 @XGetWindowAttributes(ptr noundef %16, i64 noundef %12, ptr noundef nonnull %3) #5
  %18 = getelementptr inbounds i8, ptr %3, i64 8
  %19 = getelementptr inbounds i8, ptr %1, i64 92
  %20 = load <2 x i32>, ptr %18, align 8
  store <2 x i32> %20, ptr %19, align 4
  %21 = getelementptr inbounds i8, ptr %1, i64 72
  store i32 1, ptr %21, align 8
  %22 = getelementptr inbounds i8, ptr %1, i64 80
  store i8 1, ptr %22, align 8
  %23 = getelementptr inbounds i8, ptr %1, i64 84
  store i32 0, ptr %23, align 4
  %24 = getelementptr inbounds i8, ptr %1, i64 88
  store i32 0, ptr %24, align 8
  %25 = getelementptr inbounds i8, ptr %8, i64 16
  store i64 %12, ptr %25, align 8
  %26 = getelementptr inbounds i8, ptr %8, i64 8
  store i64 %12, ptr %26, align 8
  br label %27

27:                                               ; preds = %15, %14, %10, %5
  %.0 = phi i8 [ 0, %5 ], [ 0, %10 ], [ 0, %14 ], [ 1, %15 ]
  ret i8 %.0
}